target datalayout = "e-m:e-p270:32:32-p271:32:32-p272:64:64-i64:64-i128:128-f80:128-n8:16:32:64-S128"
target triple = "x86_64-pc-linux-gnu"

%struct.git_istream = type { ptr, ptr, ptr, i64, %struct.git_zstream, i32, %union.anon }
%struct.git_zstream = type { %struct.z_stream_s, i64, i64, i64, i64, ptr, ptr }
%struct.z_stream_s = type { ptr, i32, i64, ptr, i32, i64, ptr, ptr, ptr, ptr, ptr, i32, i64, i64 }
%union.anon = type { %struct.filtered_istream }
%struct.filtered_istream = type { ptr, ptr, [16384 x i8], [16384 x i8], i32, i32, i32, i32, i32 }
%struct.anon = type { ptr, i64 }

; Function Attrs: nounwind uwtable
define internal i64 @read_istream_incore(ptr noundef %0, ptr noundef %1, i64 noundef %2) #0 {
  %4 = alloca ptr, align 8
  %5 = alloca ptr, align 8
  %6 = alloca i64, align 8
  %7 = alloca i64, align 8
  %8 = alloca i64, align 8
  store ptr %0, ptr %4, align 8, !tbaa !4
  store ptr %1, ptr %5, align 8, !tbaa !87
  store i64 %2, ptr %6, align 8, !tbaa !19
  call void @llvm.lifetime.start.p0(i64 8, ptr %7) #8
  %9 = load i64, ptr %6, align 8, !tbaa !19
  store i64 %9, ptr %7, align 8, !tbaa !19
  call void @llvm.lifetime.start.p0(i64 8, ptr %8) #8
  %10 = load ptr, ptr %4, align 8, !tbaa !4
  %11 = getelementptr inbounds nuw %struct.git_istream, ptr %10, i32 0, i32 3
  %12 = load i64, ptr %11, align 8, !tbaa !30
  %13 = load ptr, ptr %4, align 8, !tbaa !4
  %14 = getelementptr inbounds nuw %struct.git_istream, ptr %13, i32 0, i32 6
  %15 = getelementptr inbounds nuw %struct.anon, ptr %14, i32 0, i32 1
  %16 = load i64, ptr %15, align 8, !tbaa !69
  %17 = sub i64 %12, %16
  store i64 %17, ptr %8, align 8, !tbaa !19
  %18 = load i64, ptr %8, align 8, !tbaa !19
  %19 = load i64, ptr %7, align 8, !tbaa !19
  %20 = icmp ule i64 %18, %19
  br i1 %20, label %21, label %23

21:                                               ; preds = %3
  %22 = load i64, ptr %8, align 8, !tbaa !19
  store i64 %22, ptr %7, align 8, !tbaa !19
  br label %23

23:                                               ; preds = %21, %3
  %24 = load i64, ptr %7, align 8, !tbaa !19
  %25 = icmp ne i64 %24, 0
  br i1 %25, label %26, label %44

26:                                               ; preds = %23
  %27 = load ptr, ptr %5, align 8, !tbaa !87
  %28 = load ptr, ptr %4, align 8, !tbaa !4
  %29 = getelementptr inbounds nuw %struct.git_istream, ptr %28, i32 0, i32 6
  %30 = getelementptr inbounds nuw %struct.anon, ptr %29, i32 0, i32 0
  %31 = load ptr, ptr %30, align 8, !tbaa !69
  %32 = load ptr, ptr %4, align 8, !tbaa !4
  %33 = getelementptr inbounds nuw %struct.git_istream, ptr %32, i32 0, i32 6
  %34 = getelementptr inbounds nuw %struct.anon, ptr %33, i32 0, i32 1
  %35 = load i64, ptr %34, align 8, !tbaa !69
  %36 = getelementptr inbounds nuw i8, ptr %31, i64 %35
  %37 = load i64, ptr %7, align 8, !tbaa !19
  call void @llvm.memcpy.p0.p0.i64(ptr align 1 %27, ptr align 1 %36, i64 %37, i1 false)
  %38 = load i64, ptr %7, align 8, !tbaa !19
  %39 = load ptr, ptr %4, align 8, !tbaa !4
  %40 = getelementptr inbounds nuw %struct.git_istream, ptr %39, i32 0, i32 6
  %41 = getelementptr inbounds nuw %struct.anon, ptr %40, i32 0, i32 1
  %42 = load i64, ptr %41, align 8, !tbaa !69
  %43 = add i64 %42, %38
  store i64 %43, ptr %41, align 8, !tbaa !69
  br label %44

44:                                               ; preds = %26, %23
  %45 = load i64, ptr %7, align 8, !tbaa !19
  call void @llvm.lifetime.end.p0(i64 8, ptr %8) #8
  call void @llvm.lifetime.end.p0(i64 8, ptr %7) #8
  ret i64 %45
}