; Function Attrs: mustprogress nofree norecurse nosync nounwind willreturn memory(readwrite, inaccessiblemem: none) uwtable
define internal i64 @read_istream_incore(ptr noundef captures(none) %0, ptr noundef writeonly captures(none) %1, i64 noundef %2) #9 {
  %4 = getelementptr inbounds nuw i8, ptr %0, i64 24
  %5 = load i64, ptr %4, align 8, !tbaa !60
  %6 = getelementptr inbounds nuw i8, ptr %0, i64 208
  %7 = load i64, ptr %6, align 8, !tbaa !56
  %8 = sub i64 %5, %7
  %spec.select = tail call i64 @llvm.umin.i64(i64 %8, i64 %2)
  %.not15 = icmp eq i64 %spec.select, 0
  br i1 %.not15, label %15, label %9

9:                                                ; preds = %3
  %10 = getelementptr inbounds nuw i8, ptr %0, i64 200
  %11 = load ptr, ptr %10, align 8, !tbaa !56
  %12 = getelementptr inbounds nuw i8, ptr %11, i64 %7
  tail call void @llvm.memcpy.p0.p0.i64(ptr align 1 %1, ptr align 1 %12, i64 %spec.select, i1 false)
  %13 = load i64, ptr %6, align 8, !tbaa !56
  %14 = add i64 %13, %spec.select
  store i64 %14, ptr %6, align 8, !tbaa !56
  br label %15

15:                                               ; preds = %9, %3
  ret i64 %spec.select
}